target datalayout = "e-m:e-p270:32:32-p271:32:32-p272:64:64-i64:64-i128:128-f80:128-n8:16:32:64-S128"
target triple = "x86_64-pc-linux-gnu"

%struct.dynbuf = type { ptr, i64, i64, i64 }

@.str = private unnamed_addr constant [2 x i8] c"r\00", align 1
@.str.1 = private unnamed_addr constant [43 x i8] c"SSL session file does not exist (yet?): %s\00", align 1
@.str.2 = private unnamed_addr constant [44 x i8] c"unrecognized line %d in ssl session file %s\00", align 1
@.str.3 = private unnamed_addr constant [41 x i8] c"invalid shmax base64 encoding in line %d\00", align 1
@.str.4 = private unnamed_addr constant [45 x i8] c"invalid sdata base64 encoding in line %d: %s\00", align 1
@.str.5 = private unnamed_addr constant [44 x i8] c"import of session from line %d rejected(%d)\00", align 1

; Function Attrs: nounwind uwtable
define dso_local i32 @tool_ssls_load(ptr noundef %0, ptr noundef %1, ptr noundef %2, ptr noundef %3) #0 {
  %5 = alloca ptr, align 8
  %6 = alloca ptr, align 8
  %7 = alloca ptr, align 8
  %8 = alloca ptr, align 8
  %9 = alloca ptr, align 8
  %10 = alloca ptr, align 8
  %11 = alloca %struct.dynbuf, align 8
  %12 = alloca ptr, align 8
  %13 = alloca ptr, align 8
  %14 = alloca ptr, align 8
  %15 = alloca ptr, align 8
  %16 = alloca ptr, align 8
  %17 = alloca i64, align 8
  %18 = alloca i64, align 8
  %19 = alloca i32, align 4
  %20 = alloca i32, align 4
  %21 = alloca i32, align 4
  store ptr %0, ptr %5, align 8, !tbaa !4
  store ptr %1, ptr %6, align 8, !tbaa !9
  store ptr %2, ptr %7, align 8, !tbaa !11
  store ptr %3, ptr %8, align 8, !tbaa !12
  call void @llvm.lifetime.start.p0(i64 8, ptr %9) #4
  call void @llvm.lifetime.start.p0(i64 8, ptr %10) #4
  store ptr null, ptr %10, align 8, !tbaa !11
  call void @llvm.lifetime.start.p0(i64 32, ptr %11) #4
  call void @llvm.lifetime.start.p0(i64 8, ptr %12) #4
  store ptr null, ptr %12, align 8, !tbaa !12
  call void @llvm.lifetime.start.p0(i64 8, ptr %13) #4
  store ptr null, ptr %13, align 8, !tbaa !12
  call void @llvm.lifetime.start.p0(i64 8, ptr %14) #4
  call void @llvm.lifetime.start.p0(i64 8, ptr %15) #4
  call void @llvm.lifetime.start.p0(i64 8, ptr %16) #4
  call void @llvm.lifetime.start.p0(i64 8, ptr %17) #4
  call void @llvm.lifetime.start.p0(i64 8, ptr %18) #4
  call void @llvm.lifetime.start.p0(i64 4, ptr %19) #4
  store i32 0, ptr %19, align 4, !tbaa !14
  call void @llvm.lifetime.start.p0(i64 4, ptr %20) #4
  call void @llvm.lifetime.start.p0(i64 4, ptr %21) #4
  call void @curlx_dyn_init(ptr noundef %11, i64 noundef 65536)
  %22 = load ptr, ptr %8, align 8, !tbaa !12
  %23 = call noalias ptr @fopen(ptr noundef %22, ptr noundef @.str)
  store ptr %23, ptr %9, align 8, !tbaa !16
  %24 = load ptr, ptr %9, align 8, !tbaa !16
  %25 = icmp ne ptr %24, null
  br i1 %25, label %29, label %26

26:                                               ; preds = %4
  %27 = load ptr, ptr %5, align 8, !tbaa !4
  %28 = load ptr, ptr %8, align 8, !tbaa !12
  call void (ptr, ptr, ...) @notef(ptr noundef %27, ptr noundef @.str.1, ptr noundef %28)
  br label %164

29:                                               ; preds = %4
  %30 = load ptr, ptr %5, align 8, !tbaa !4
  %31 = load ptr, ptr %6, align 8, !tbaa !9
  %32 = load ptr, ptr %7, align 8, !tbaa !11
  %33 = call i32 @tool_ssls_easy(ptr noundef %30, ptr noundef %31, ptr noundef %32, ptr noundef %10)
  store i32 %33, ptr %19, align 4, !tbaa !14
  %34 = load i32, ptr %19, align 4, !tbaa !14
  %35 = icmp ne i32 %34, 0
  br i1 %35, label %36, label %37

36:                                               ; preds = %29
  br label %164

37:                                               ; preds = %29
  store i32 0, ptr %21, align 4, !tbaa !14
  store i32 0, ptr %20, align 4, !tbaa !14
  br label %38

38:                                               ; preds = %160, %156, %143, %93, %83, %75, %37
  %39 = load ptr, ptr %9, align 8, !tbaa !16
  %40 = call i32 @curlx_get_line(ptr noundef %11, ptr noundef %39)
  %41 = icmp ne i32 %40, 0
  br i1 %41, label %42, label %163

42:                                               ; preds = %38
  %43 = load i32, ptr %20, align 4, !tbaa !14
  %44 = add nsw i32 %43, 1
  store i32 %44, ptr %20, align 4, !tbaa !14
  %45 = load ptr, ptr %12, align 8, !tbaa !12
  call void @curl_free(ptr noundef %45)
  %46 = load ptr, ptr %13, align 8, !tbaa !12
  call void @curl_free(ptr noundef %46)
  %47 = call ptr @curlx_dyn_ptr(ptr noundef %11)
  store ptr %47, ptr %15, align 8, !tbaa !12
  br label %48

48:                                               ; preds = %67, %42
  %49 = load ptr, ptr %15, align 8, !tbaa !12
  %50 = load i8, ptr %49, align 1, !tbaa !18
  %51 = sext i8 %50 to i32
  %52 = icmp ne i32 %51, 0
  br i1 %52, label %53, label %65

53:                                               ; preds = %48
  %54 = load ptr, ptr %15, align 8, !tbaa !12
  %55 = load i8, ptr %54, align 1, !tbaa !18
  %56 = sext i8 %55 to i32
  %57 = icmp eq i32 %56, 32
  br i1 %57, label %63, label %58

58:                                               ; preds = %53
  %59 = load ptr, ptr %15, align 8, !tbaa !12
  %60 = load i8, ptr %59, align 1, !tbaa !18
  %61 = sext i8 %60 to i32
  %62 = icmp eq i32 %61, 9
  br label %63

63:                                               ; preds = %58, %53
  %64 = phi i1 [ true, %53 ], [ %62, %58 ]
  br label %65

65:                                               ; preds = %63, %48
  %66 = phi i1 [ false, %48 ], [ %64, %63 ]
  br i1 %66, label %67, label %70

67:                                               ; preds = %65
  %68 = load ptr, ptr %15, align 8, !tbaa !12
  %69 = getelementptr inbounds nuw i8, ptr %68, i32 1
  store ptr %69, ptr %15, align 8, !tbaa !12
  br label %48, !llvm.loop !19

70:                                               ; preds = %65
  %71 = load ptr, ptr %15, align 8, !tbaa !12
  %72 = load i8, ptr %71, align 1, !tbaa !18
  %73 = sext i8 %72 to i32
  %74 = icmp eq i32 %73, 35
  br i1 %74, label %75, label %76

75:                                               ; preds = %70
  br label %38, !llvm.loop !21

76:                                               ; preds = %70
  %77 = load ptr, ptr %15, align 8, !tbaa !12
  %78 = load ptr, ptr %15, align 8, !tbaa !12
  %79 = call i64 @strlen(ptr noundef %78) #5
  %80 = call ptr @memchr(ptr noundef %77, i32 noundef 58, i64 noundef %79) #5
  store ptr %80, ptr %14, align 8, !tbaa !12
  %81 = load ptr, ptr %14, align 8, !tbaa !12
  %82 = icmp ne ptr %81, null
  br i1 %82, label %87, label %83

83:                                               ; preds = %76
  %84 = load ptr, ptr %5, align 8, !tbaa !4
  %85 = load i32, ptr %20, align 4, !tbaa !14
  %86 = load ptr, ptr %8, align 8, !tbaa !12
  call void (ptr, ptr, ...) @warnf(ptr noundef %84, ptr noundef @.str.2, i32 noundef %85, ptr noundef %86)
  br label %38, !llvm.loop !21

87:                                               ; preds = %76
  %88 = load ptr, ptr %14, align 8, !tbaa !12
  store i8 0, ptr %88, align 1, !tbaa !18
  %89 = load ptr, ptr %15, align 8, !tbaa !12
  %90 = call i32 @curlx_base64_decode(ptr noundef %89, ptr noundef %12, ptr noundef %17)
  store i32 %90, ptr %19, align 4, !tbaa !14
  %91 = load i32, ptr %19, align 4, !tbaa !14
  %92 = icmp ne i32 %91, 0
  br i1 %92, label %93, label %96

93:                                               ; preds = %87
  %94 = load ptr, ptr %5, align 8, !tbaa !4
  %95 = load i32, ptr %20, align 4, !tbaa !14
  call void (ptr, ptr, ...) @warnf(ptr noundef %94, ptr noundef @.str.3, i32 noundef %95)
  br label %38, !llvm.loop !21

96:                                               ; preds = %87
  %97 = load ptr, ptr %14, align 8, !tbaa !12
  %98 = getelementptr inbounds i8, ptr %97, i64 1
  store ptr %98, ptr %15, align 8, !tbaa !12
  %99 = load ptr, ptr %15, align 8, !tbaa !12
  %100 = load ptr, ptr %15, align 8, !tbaa !12
  %101 = call i64 @strlen(ptr noundef %100) #5
  %102 = getelementptr inbounds nuw i8, ptr %99, i64 %101
  %103 = getelementptr inbounds i8, ptr %102, i64 -1
  store ptr %103, ptr %16, align 8, !tbaa !12
  br label %104

104:                                              ; preds = %134, %96
  %105 = load ptr, ptr %16, align 8, !tbaa !12
  %106 = load ptr, ptr %15, align 8, !tbaa !12
  %107 = icmp ugt ptr %105, %106
  br i1 %107, label %108, label %132

108:                                              ; preds = %104
  %109 = load ptr, ptr %16, align 8, !tbaa !12
  %110 = load i8, ptr %109, align 1, !tbaa !18
  %111 = sext i8 %110 to i32
  %112 = icmp eq i32 %111, 10
  br i1 %112, label %130, label %113

113:                                              ; preds = %108
  %114 = load ptr, ptr %16, align 8, !tbaa !12
  %115 = load i8, ptr %114, align 1, !tbaa !18
  %116 = sext i8 %115 to i32
  %117 = icmp eq i32 %116, 13
  br i1 %117, label %130, label %118

118:                                              ; preds = %113
  %119 = load ptr, ptr %15, align 8, !tbaa !12
  %120 = load i8, ptr %119, align 1, !tbaa !18
  %121 = sext i8 %120 to i32
  %122 = icmp eq i32 %121, 32
  br i1 %122, label %128, label %123

123:                                              ; preds = %118
  %124 = load ptr, ptr %15, align 8, !tbaa !12
  %125 = load i8, ptr %124, align 1, !tbaa !18
  %126 = sext i8 %125 to i32
  %127 = icmp eq i32 %126, 9
  br label %128

128:                                              ; preds = %123, %118
  %129 = phi i1 [ true, %118 ], [ %127, %123 ]
  br label %130

130:                                              ; preds = %128, %113, %108
  %131 = phi i1 [ true, %113 ], [ true, %108 ], [ %129, %128 ]
  br label %132

132:                                              ; preds = %130, %104
  %133 = phi i1 [ false, %104 ], [ %131, %130 ]
  br i1 %133, label %134, label %138

134:                                              ; preds = %132
  %135 = load ptr, ptr %16, align 8, !tbaa !12
  store i8 0, ptr %135, align 1, !tbaa !18
  %136 = load ptr, ptr %16, align 8, !tbaa !12
  %137 = getelementptr inbounds i8, ptr %136, i32 -1
  store ptr %137, ptr %16, align 8, !tbaa !12
  br label %104, !llvm.loop !22

138:                                              ; preds = %132
  %139 = load ptr, ptr %15, align 8, !tbaa !12
  %140 = call i32 @curlx_base64_decode(ptr noundef %139, ptr noundef %13, ptr noundef %18)
  store i32 %140, ptr %19, align 4, !tbaa !14
  %141 = load i32, ptr %19, align 4, !tbaa !14
  %142 = icmp ne i32 %141, 0
  br i1 %142, label %143, label %147

143:                                              ; preds = %138
  %144 = load ptr, ptr %5, align 8, !tbaa !4
  %145 = load i32, ptr %20, align 4, !tbaa !14
  %146 = load ptr, ptr %15, align 8, !tbaa !12
  call void (ptr, ptr, ...) @warnf(ptr noundef %144, ptr noundef @.str.4, i32 noundef %145, ptr noundef %146)
  br label %38, !llvm.loop !21

147:                                              ; preds = %138
  %148 = load ptr, ptr %10, align 8, !tbaa !11
  %149 = load ptr, ptr %12, align 8, !tbaa !12
  %150 = load i64, ptr %17, align 8, !tbaa !23
  %151 = load ptr, ptr %13, align 8, !tbaa !12
  %152 = load i64, ptr %18, align 8, !tbaa !23
  %153 = call i32 @curl_easy_ssls_import(ptr noundef %148, ptr noundef null, ptr noundef %149, i64 noundef %150, ptr noundef %151, i64 noundef %152)
  store i32 %153, ptr %19, align 4, !tbaa !14
  %154 = load i32, ptr %19, align 4, !tbaa !14
  %155 = icmp ne i32 %154, 0
  br i1 %155, label %156, label %160

156:                                              ; preds = %147
  %157 = load ptr, ptr %5, align 8, !tbaa !4
  %158 = load i32, ptr %20, align 4, !tbaa !14
  %159 = load i32, ptr %19, align 4, !tbaa !14
  call void (ptr, ptr, ...) @warnf(ptr noundef %157, ptr noundef @.str.5, i32 noundef %158, i32 noundef %159)
  br label %38, !llvm.loop !21

160:                                              ; preds = %147
  %161 = load i32, ptr %21, align 4, !tbaa !14
  %162 = add nsw i32 %161, 1
  store i32 %162, ptr %21, align 4, !tbaa !14
  br label %38, !llvm.loop !21

163:                                              ; preds = %38
  store i32 0, ptr %19, align 4, !tbaa !14
  br label %164

164:                                              ; preds = %163, %36, %26
  %165 = load ptr, ptr %10, align 8, !tbaa !11
  %166 = icmp ne ptr %165, null
  br i1 %166, label %167, label %169

167:                                              ; preds = %164
  %168 = load ptr, ptr %10, align 8, !tbaa !11
  call void @curl_easy_cleanup(ptr noundef %168)
  br label %169

169:                                              ; preds = %167, %164
  %170 = load ptr, ptr %9, align 8, !tbaa !16
  %171 = icmp ne ptr %170, null
  br i1 %171, label %172, label %175

172:                                              ; preds = %169
  %173 = load ptr, ptr %9, align 8, !tbaa !16
  %174 = call i32 @fclose(ptr noundef %173)
  br label %175

175:                                              ; preds = %172, %169
  call void @curlx_dyn_free(ptr noundef %11)
  %176 = load ptr, ptr %12, align 8, !tbaa !12
  call void @curl_free(ptr noundef %176)
  %177 = load ptr, ptr %13, align 8, !tbaa !12
  call void @curl_free(ptr noundef %177)
  %178 = load i32, ptr %19, align 4, !tbaa !14
  call void @llvm.lifetime.end.p0(i64 4, ptr %21) #4
  call void @llvm.lifetime.end.p0(i64 4, ptr %20) #4
  call void @llvm.lifetime.end.p0(i64 4, ptr %19) #4
  call void @llvm.lifetime.end.p0(i64 8, ptr %18) #4
  call void @llvm.lifetime.end.p0(i64 8, ptr %17) #4
  call void @llvm.lifetime.end.p0(i64 8, ptr %16) #4
  call void @llvm.lifetime.end.p0(i64 8, ptr %15) #4
  call void @llvm.lifetime.end.p0(i64 8, ptr %14) #4
  call void @llvm.lifetime.end.p0(i64 8, ptr %13) #4
  call void @llvm.lifetime.end.p0(i64 8, ptr %12) #4
  call void @llvm.lifetime.end.p0(i64 32, ptr %11) #4
  call void @llvm.lifetime.end.p0(i64 8, ptr %10) #4
  call void @llvm.lifetime.end.p0(i64 8, ptr %9) #4
  ret i32 %178
}