; Function Attrs: nounwind uwtable
define dso_local i32 @tool_ssls_load(ptr noundef %0, ptr noundef %1, ptr noundef %2, ptr noundef %3) local_unnamed_addr #0 {
  %5 = alloca ptr, align 8
  %6 = alloca %struct.dynbuf, align 8
  %7 = alloca ptr, align 8
  %8 = alloca ptr, align 8
  %9 = alloca i64, align 8
  %10 = alloca i64, align 8
  call void @llvm.lifetime.start.p0(i64 8, ptr nonnull %5) #5
  call void @llvm.lifetime.start.p0(i64 32, ptr nonnull %6) #5
  call void @llvm.lifetime.start.p0(i64 8, ptr nonnull %7) #5
  store ptr null, ptr %7, align 8, !tbaa !4
  call void @llvm.lifetime.start.p0(i64 8, ptr nonnull %8) #5
  store ptr null, ptr %8, align 8, !tbaa !4
  call void @llvm.lifetime.start.p0(i64 8, ptr nonnull %9) #5
  call void @llvm.lifetime.start.p0(i64 8, ptr nonnull %10) #5
  call void @curlx_dyn_init(ptr noundef nonnull %6, i64 noundef 65536) #5
  %11 = call noalias ptr @fopen(ptr noundef %3, ptr noundef nonnull @.str)
  %.not = icmp eq ptr %11, null
  br i1 %.not, label %49, label %12

12:                                               ; preds = %4
  %13 = call fastcc i32 @tool_ssls_easy(ptr noundef %0, ptr noundef %1, ptr noundef %2, ptr noundef %5)
  %.not68 = icmp eq i32 %13, 0
  br i1 %.not68, label %.preheader, label %..loopexit80_crit_edge

..loopexit80_crit_edge:                           ; preds = %12
  %.pre = load ptr, ptr %5, align 8, !tbaa !9
  br label %.loopexit80

.preheader:                                       ; preds = %12
  %14 = call i32 @curlx_get_line(ptr noundef nonnull %6, ptr noundef nonnull %11) #5
  %.not698689 = icmp eq i32 %14, 0
  %.pre95 = load ptr, ptr %5, align 8, !tbaa !9
  br i1 %.not698689, label %.loopexit80, label %.lr.ph88

.lr.ph88:                                         ; preds = %.preheader, %.lr.ph88.backedge
  %.05587 = phi i32 [ %15, %.lr.ph88.backedge ], [ 0, %.preheader ]
  %15 = add nuw nsw i32 %.05587, 1
  %16 = load ptr, ptr %7, align 8, !tbaa !4
  call void @curl_free(ptr noundef %16) #5
  %17 = load ptr, ptr %8, align 8, !tbaa !4
  call void @curl_free(ptr noundef %17) #5
  %18 = call ptr @curlx_dyn_ptr(ptr noundef nonnull %6) #5
  br label %19

19:                                               ; preds = %.critedge2, %.lr.ph88
  %.058 = phi ptr [ %18, %.lr.ph88 ], [ %21, %.critedge2 ]
  %20 = load i8, ptr %.058, align 1, !tbaa !10
  switch i8 %20, label %22 [
    i8 9, label %.critedge2
    i8 32, label %.critedge2
    i8 35, label %.backedge
  ]

.critedge2:                                       ; preds = %19, %19
  %21 = getelementptr inbounds nuw i8, ptr %.058, i64 1
  br label %19, !llvm.loop !11

22:                                               ; preds = %19
  %23 = call i64 @strlen(ptr noundef nonnull dereferenceable(1) %.058) #6
  %24 = call ptr @memchr(ptr noundef nonnull %.058, i32 noundef 58, i64 noundef %23) #6
  %.not71 = icmp eq ptr %24, null
  br i1 %.not71, label %25, label %27

25:                                               ; preds = %22
  call void (ptr, ptr, ...) @warnf(ptr noundef %0, ptr noundef nonnull @.str.2, i32 noundef %15, ptr noundef %3) #5
  br label %.backedge

.backedge:                                        ; preds = %19, %25, %29, %38, %45
  %26 = call i32 @curlx_get_line(ptr noundef nonnull %6, ptr noundef nonnull %11) #5
  %.not69 = icmp eq i32 %26, 0
  br i1 %.not69, label %.loopexit80, label %.lr.ph88.backedge

.lr.ph88.backedge:                                ; preds = %.backedge, %.outer
  br label %.lr.ph88, !llvm.loop !13

27:                                               ; preds = %22
  store i8 0, ptr %24, align 1, !tbaa !10
  %28 = call i32 @curlx_base64_decode(ptr noundef nonnull %.058, ptr noundef nonnull %7, ptr noundef nonnull %9) #5
  %.not72 = icmp eq i32 %28, 0
  br i1 %.not72, label %30, label %29

29:                                               ; preds = %27
  call void (ptr, ptr, ...) @warnf(ptr noundef %0, ptr noundef nonnull @.str.3, i32 noundef %15) #5
  br label %.backedge

30:                                               ; preds = %27
  %.ptr74 = getelementptr inbounds nuw i8, ptr %24, i64 1
  %31 = call i64 @strlen(ptr noundef nonnull dereferenceable(1) %.ptr74) #6
  %32 = icmp sgt i64 %31, 1
  br i1 %32, label %.lr.ph, label %.critedge4

.lr.ph:                                           ; preds = %30, %.critedge6
  %.057.idx83 = phi i64 [ %.057.add, %.critedge6 ], [ %31, %30 ]
  %.057.ptr84 = getelementptr inbounds nuw i8, ptr %24, i64 %.057.idx83
  %33 = load i8, ptr %.057.ptr84, align 1, !tbaa !10
  switch i8 %33, label %34 [
    i8 10, label %.critedge6
    i8 13, label %.critedge6
  ]

34:                                               ; preds = %.lr.ph
  %35 = load i8, ptr %.ptr74, align 1, !tbaa !10
  switch i8 %35, label %.critedge4 [
    i8 32, label %.critedge6
    i8 9, label %.critedge6
  ]

.critedge6:                                       ; preds = %34, %34, %.lr.ph, %.lr.ph
  store i8 0, ptr %.057.ptr84, align 1, !tbaa !10
  %.057.add = add nsw i64 %.057.idx83, -1
  %36 = icmp sgt i64 %.057.idx83, 2
  br i1 %36, label %.lr.ph, label %.critedge4, !llvm.loop !14

.critedge4:                                       ; preds = %.critedge6, %34, %30
  %37 = call i32 @curlx_base64_decode(ptr noundef nonnull %.ptr74, ptr noundef nonnull %8, ptr noundef nonnull %10) #5
  %.not77 = icmp eq i32 %37, 0
  br i1 %.not77, label %39, label %38

38:                                               ; preds = %.critedge4
  call void (ptr, ptr, ...) @warnf(ptr noundef %0, ptr noundef nonnull @.str.4, i32 noundef %15, ptr noundef nonnull %.ptr74) #5
  br label %.backedge

39:                                               ; preds = %.critedge4
  %40 = load ptr, ptr %7, align 8, !tbaa !4
  %41 = load i64, ptr %9, align 8, !tbaa !15
  %42 = load ptr, ptr %8, align 8, !tbaa !4
  %43 = load i64, ptr %10, align 8, !tbaa !15
  %44 = call i32 @curl_easy_ssls_import(ptr noundef %.pre95, ptr noundef null, ptr noundef %40, i64 noundef %41, ptr noundef %42, i64 noundef %43) #5
  %.not78 = icmp eq i32 %44, 0
  br i1 %.not78, label %.outer, label %45

45:                                               ; preds = %39
  call void (ptr, ptr, ...) @warnf(ptr noundef %0, ptr noundef nonnull @.str.5, i32 noundef %15, i32 noundef %44) #5
  br label %.backedge

.outer:                                           ; preds = %39
  %46 = call i32 @curlx_get_line(ptr noundef nonnull %6, ptr noundef nonnull %11) #5
  %.not6986 = icmp eq i32 %46, 0
  br i1 %.not6986, label %.loopexit80, label %.lr.ph88.backedge

.loopexit80:                                      ; preds = %.outer, %.backedge, %..loopexit80_crit_edge, %.preheader
  %47 = phi ptr [ %.pre, %..loopexit80_crit_edge ], [ %.pre95, %.preheader ], [ %.pre95, %.backedge ], [ %.pre95, %.outer ]
  %.056 = phi i32 [ %13, %..loopexit80_crit_edge ], [ 0, %.preheader ], [ 0, %.backedge ], [ 0, %.outer ]
  %.not79 = icmp eq ptr %47, null
  br i1 %.not79, label %50, label %48

48:                                               ; preds = %.loopexit80
  call void @curl_easy_cleanup(ptr noundef nonnull %47) #5
  br label %50

49:                                               ; preds = %4
  call void (ptr, ptr, ...) @notef(ptr noundef %0, ptr noundef nonnull @.str.1, ptr noundef %3) #5
  br label %52

50:                                               ; preds = %48, %.loopexit80
  %51 = call i32 @fclose(ptr noundef nonnull %11)
  br label %52

52:                                               ; preds = %49, %50
  %.05698101 = phi i32 [ %.056, %50 ], [ 0, %49 ]
  call void @curlx_dyn_free(ptr noundef nonnull %6) #5
  %53 = load ptr, ptr %7, align 8, !tbaa !4
  call void @curl_free(ptr noundef %53) #5
  %54 = load ptr, ptr %8, align 8, !tbaa !4
  call void @curl_free(ptr noundef %54) #5
  call void @llvm.lifetime.end.p0(i64 8, ptr nonnull %10) #5
  call void @llvm.lifetime.end.p0(i64 8, ptr nonnull %9) #5
  call void @llvm.lifetime.end.p0(i64 8, ptr nonnull %8) #5
  call void @llvm.lifetime.end.p0(i64 8, ptr nonnull %7) #5
  call void @llvm.lifetime.end.p0(i64 32, ptr nonnull %6) #5
  call void @llvm.lifetime.end.p0(i64 8, ptr nonnull %5) #5
  ret i32 %.05698101
}